target datalayout = "e-m:e-p270:32:32-p271:32:32-p272:64:64-i64:64-i128:128-f80:128-n8:16:32:64-S128"
target triple = "x86_64-pc-linux-gnu"

%struct.ObjectClass = type { ptr, ptr, [4 x ptr], [4 x ptr], ptr, ptr }
%struct.CPUClass = type { %struct.DeviceClass, ptr, ptr, ptr, ptr, ptr, ptr, ptr, ptr, ptr, ptr, ptr, ptr, ptr, ptr, ptr, ptr, ptr, ptr, ptr, ptr, ptr, i32, i32, i8 }
%struct.DeviceClass = type { %struct.ObjectClass, [1 x i64], ptr, ptr, ptr, i16, i8, i8, ptr, ptr, ptr, ptr, ptr, ptr }

@phy_memory_mode = internal global i32 0, align 4
@.str.50 = private unnamed_addr constant [4 x i8] c"cpu\00", align 1
@.str.51 = private unnamed_addr constant [100 x i8] c"/home/dtcxzyw/WorkSpace/Projects/compilers/llvm-opt-benchmark/bench/qemu/qemu/include/hw/core/cpu.h\00", align 1
@__func__.CPU_GET_CLASS = private unnamed_addr constant [14 x i8] c"CPU_GET_CLASS\00", align 1

; Function Attrs: inlinehint nounwind sspstrong uwtable
define internal ptr @CPU_GET_CLASS(ptr noundef %0) #3 {
  %2 = alloca ptr, align 8
  store ptr %0, ptr %2, align 8
  %3 = load ptr, ptr %2, align 8
  %4 = call ptr @object_get_class(ptr noundef %3)
  %5 = call ptr @object_class_dynamic_cast_assert(ptr noundef %4, ptr noundef @.str.50, ptr noundef @.str.51, i32 noundef 67, ptr noundef @__func__.CPU_GET_CLASS)
  ret ptr %5
}

; Function Attrs: inlinehint nounwind sspstrong uwtable
define internal void @cpu_physical_memory_read(i64 noundef %0, ptr noundef %1, i64 noundef %2) #3 {
  %4 = alloca i64, align 8
  %5 = alloca ptr, align 8
  %6 = alloca i64, align 8
  store i64 %0, ptr %4, align 8
  store ptr %1, ptr %5, align 8
  store i64 %2, ptr %6, align 8
  %7 = load i64, ptr %4, align 8
  %8 = load ptr, ptr %5, align 8
  %9 = load i64, ptr %6, align 8
  call void @cpu_physical_memory_rw(i64 noundef %7, ptr noundef %8, i64 noundef %9, i1 noundef zeroext false)
  ret void
}

; Function Attrs: inlinehint nounwind sspstrong uwtable
define internal void @cpu_physical_memory_write(i64 noundef %0, ptr noundef %1, i64 noundef %2) #3 {
  %4 = alloca i64, align 8
  %5 = alloca ptr, align 8
  %6 = alloca i64, align 8
  store i64 %0, ptr %4, align 8
  store ptr %1, ptr %5, align 8
  store i64 %2, ptr %6, align 8
  %7 = load i64, ptr %4, align 8
  %8 = load ptr, ptr %5, align 8
  %9 = load i64, ptr %6, align 8
  call void @cpu_physical_memory_rw(i64 noundef %7, ptr noundef %8, i64 noundef %9, i1 noundef zeroext true)
  ret void
}

; Function Attrs: nounwind sspstrong uwtable
define dso_local i32 @gdb_target_memory_rw_debug(ptr noundef %0, i64 noundef %1, ptr noundef %2, i32 noundef %3, i1 noundef zeroext %4) #0 {
  %6 = alloca i32, align 4
  %7 = alloca ptr, align 8
  %8 = alloca i64, align 8
  %9 = alloca ptr, align 8
  %10 = alloca i32, align 4
  %11 = alloca i8, align 1
  %12 = alloca ptr, align 8
  %13 = alloca i32, align 4
  store ptr %0, ptr %7, align 8
  store i64 %1, ptr %8, align 8
  store ptr %2, ptr %9, align 8
  store i32 %3, ptr %10, align 4
  %14 = zext i1 %4 to i8
  store i8 %14, ptr %11, align 1
  call void @llvm.lifetime.start.p0(i64 8, ptr %12) #14
  store ptr null, ptr %12, align 8, !annotation !4
  %15 = load i32, ptr @phy_memory_mode, align 4
  %16 = icmp ne i32 %15, 0
  br i1 %16, label %17, label %31

17:                                               ; preds = %5
  %18 = load i8, ptr %11, align 1, !range !7, !noundef !8
  %19 = trunc i8 %18 to i1
  br i1 %19, label %20, label %25

20:                                               ; preds = %17
  %21 = load i64, ptr %8, align 8
  %22 = load ptr, ptr %9, align 8
  %23 = load i32, ptr %10, align 4
  %24 = sext i32 %23 to i64
  call void @cpu_physical_memory_write(i64 noundef %21, ptr noundef %22, i64 noundef %24)
  br label %30

25:                                               ; preds = %17
  %26 = load i64, ptr %8, align 8
  %27 = load ptr, ptr %9, align 8
  %28 = load i32, ptr %10, align 4
  %29 = sext i32 %28 to i64
  call void @cpu_physical_memory_read(i64 noundef %26, ptr noundef %27, i64 noundef %29)
  br label %30

30:                                               ; preds = %25, %20
  store i32 0, ptr %6, align 4
  store i32 1, ptr %13, align 4
  br label %58

31:                                               ; preds = %5
  %32 = load ptr, ptr %7, align 8
  %33 = call ptr @CPU_GET_CLASS(ptr noundef %32)
  store ptr %33, ptr %12, align 8
  %34 = load ptr, ptr %12, align 8
  %35 = getelementptr inbounds nuw %struct.CPUClass, ptr %34, i32 0, i32 5
  %36 = load ptr, ptr %35, align 8
  %37 = icmp ne ptr %36, null
  br i1 %37, label %38, label %49

38:                                               ; preds = %31
  %39 = load ptr, ptr %12, align 8
  %40 = getelementptr inbounds nuw %struct.CPUClass, ptr %39, i32 0, i32 5
  %41 = load ptr, ptr %40, align 8
  %42 = load ptr, ptr %7, align 8
  %43 = load i64, ptr %8, align 8
  %44 = load ptr, ptr %9, align 8
  %45 = load i32, ptr %10, align 4
  %46 = load i8, ptr %11, align 1, !range !7, !noundef !8
  %47 = trunc i8 %46 to i1
  %48 = call i32 %41(ptr noundef %42, i64 noundef %43, ptr noundef %44, i32 noundef %45, i1 noundef zeroext %47)
  store i32 %48, ptr %6, align 4
  store i32 1, ptr %13, align 4
  br label %58

49:                                               ; preds = %31
  %50 = load ptr, ptr %7, align 8
  %51 = load i64, ptr %8, align 8
  %52 = load ptr, ptr %9, align 8
  %53 = load i32, ptr %10, align 4
  %54 = sext i32 %53 to i64
  %55 = load i8, ptr %11, align 1, !range !7, !noundef !8
  %56 = trunc i8 %55 to i1
  %57 = call i32 @cpu_memory_rw_debug(ptr noundef %50, i64 noundef %51, ptr noundef %52, i64 noundef %54, i1 noundef zeroext %56)
  store i32 %57, ptr %6, align 4
  store i32 1, ptr %13, align 4
  br label %58

58:                                               ; preds = %49, %38, %30
  call void @llvm.lifetime.end.p0(i64 8, ptr %12) #14
  %59 = load i32, ptr %6, align 4
  ret i32 %59
}