; Function Attrs: nounwind sspstrong uwtable
define dso_local i32 @gdb_target_memory_rw_debug(ptr noundef %0, i64 noundef %1, ptr noundef %2, i32 noundef %3, i1 noundef zeroext %4) local_unnamed_addr #2 {
  %.b = load i1, ptr @phy_memory_mode, align 4
  br i1 %.b, label %6, label %10

6:                                                ; preds = %5
  %7 = sext i32 %3 to i64
  br i1 %4, label %8, label %9

8:                                                ; preds = %6
  tail call void @cpu_physical_memory_rw(i64 noundef %1, ptr noundef %2, i64 noundef range(i64 -2147483648, 2147483648) %7, i1 noundef zeroext true) #16
  br label %20

9:                                                ; preds = %6
  tail call void @cpu_physical_memory_rw(i64 noundef %1, ptr noundef %2, i64 noundef range(i64 -2147483648, 2147483648) %7, i1 noundef zeroext false) #16
  br label %20

10:                                               ; preds = %5
  %11 = tail call ptr @object_get_class(ptr noundef %0) #16
  %12 = tail call ptr @object_class_dynamic_cast_assert(ptr noundef %11, ptr noundef nonnull @.str.50, ptr noundef nonnull @.str.51, i32 noundef 67, ptr noundef nonnull @__func__.CPU_GET_CLASS) #16
  %13 = getelementptr inbounds nuw i8, ptr %12, i64 216
  %14 = load ptr, ptr %13, align 8
  %.not = icmp eq ptr %14, null
  br i1 %.not, label %17, label %15

15:                                               ; preds = %10
  %16 = tail call i32 %14(ptr noundef %0, i64 noundef %1, ptr noundef %2, i32 noundef %3, i1 noundef zeroext %4) #16
  br label %20

17:                                               ; preds = %10
  %18 = sext i32 %3 to i64
  %19 = tail call i32 @cpu_memory_rw_debug(ptr noundef %0, i64 noundef %1, ptr noundef %2, i64 noundef %18, i1 noundef zeroext %4) #16
  br label %20

20:                                               ; preds = %8, %9, %17, %15
  %.0 = phi i32 [ %16, %15 ], [ %19, %17 ], [ 0, %9 ], [ 0, %8 ]
  ret i32 %.0
}